; Function Attrs: nounwind uwtable
define dso_local i64 @timetz_send(ptr noundef readonly captures(none) %0) local_unnamed_addr #0 {
  %2 = alloca %struct.StringInfoData, align 8
  %3 = getelementptr inbounds nuw i8, ptr %0, i64 32
  %4 = load i64, ptr %3, align 8
  %5 = inttoptr i64 %4 to ptr
  call void @llvm.lifetime.start.p0(i64 24, ptr nonnull %2) #16
  call void @pq_begintypsend(ptr noundef nonnull %2) #16
  %6 = load i64, ptr %5, align 8
  call void @enlargeStringInfo(ptr noundef nonnull %2, i32 noundef 8) #16
  call void @llvm.experimental.noalias.scope.decl(metadata !12)
  %7 = call i64 @llvm.bswap.i64(i64 %6)
  %8 = load ptr, ptr %2, align 8, !alias.scope !12
  %9 = getelementptr inbounds nuw i8, ptr %2, i64 8
  %10 = load i32, ptr %9, align 8, !alias.scope !12
  %11 = sext i32 %10 to i64
  %12 = getelementptr inbounds i8, ptr %8, i64 %11
  store i64 %7, ptr %12, align 1, !noalias !12
  %13 = add i32 %10, 8
  store i32 %13, ptr %9, align 8, !alias.scope !12
  %14 = getelementptr inbounds nuw i8, ptr %5, i64 8
  %15 = load i32, ptr %14, align 8
  call void @enlargeStringInfo(ptr noundef nonnull %2, i32 noundef 4) #16
  call void @llvm.experimental.noalias.scope.decl(metadata !15)
  %16 = call i32 @llvm.bswap.i32(i32 %15)
  %17 = load ptr, ptr %2, align 8, !alias.scope !15
  %18 = load i32, ptr %9, align 8, !alias.scope !15
  %19 = sext i32 %18 to i64
  %20 = getelementptr inbounds i8, ptr %17, i64 %19
  store i32 %16, ptr %20, align 1, !noalias !15
  %21 = add i32 %18, 4
  store i32 %21, ptr %9, align 8, !alias.scope !15
  %22 = call ptr @pq_endtypsend(ptr noundef nonnull %2) #16
  %23 = ptrtoint ptr %22 to i64
  call void @llvm.lifetime.end.p0(i64 24, ptr nonnull %2) #16
  ret i64 %23
}